target datalayout = "e-m:e-p270:32:32-p271:32:32-p272:64:64-i64:64-i128:128-f80:128-n8:16:32:64-S128"
target triple = "x86_64-pc-linux-gnu"

%struct.CatalogId = type { i32, i32 }
%struct._dumpableObject = type { i32, %struct.CatalogId, i32, ptr, ptr, i32, i32, i32, i8, i8, ptr, i32, i32 }
%struct.PQExpBufferData = type { ptr, i64, i64 }
%struct._dumpableAcl = type { ptr, ptr, i8, ptr }
%struct._funcInfo = type { %struct._dumpableObject, %struct._dumpableAcl, ptr, i32, i32, ptr, i32, i8 }

@.str.143 = private unnamed_addr constant [3 x i8] c", \00", align 1
@.str.1002 = private unnamed_addr constant [4 x i8] c"%s(\00", align 1

; Function Attrs: nounwind uwtable
define internal ptr @format_function_signature(ptr noundef %0, ptr noundef %1, i1 noundef zeroext %2) #0 {
  %4 = alloca ptr, align 8
  %5 = alloca ptr, align 8
  %6 = alloca i8, align 1
  %7 = alloca %struct.PQExpBufferData, align 8
  %8 = alloca i32, align 4
  store ptr %0, ptr %4, align 8
  store ptr %1, ptr %5, align 8
  %9 = zext i1 %2 to i8
  store i8 %9, ptr %6, align 1
  call void @llvm.lifetime.start.p0(i64 24, ptr %7) #10
  call void @llvm.lifetime.start.p0(i64 4, ptr %8) #10
  call void @initPQExpBuffer(ptr noundef %7)
  %10 = load i8, ptr %6, align 1, !range !6, !noundef !7
  %11 = trunc i8 %10 to i1
  br i1 %11, label %12, label %18

12:                                               ; preds = %3
  %13 = load ptr, ptr %5, align 8
  %14 = getelementptr inbounds nuw %struct._funcInfo, ptr %13, i32 0, i32 0
  %15 = getelementptr inbounds nuw %struct._dumpableObject, ptr %14, i32 0, i32 3
  %16 = load ptr, ptr %15, align 8
  %17 = call ptr @fmtId(ptr noundef %16)
  call void (ptr, ptr, ...) @appendPQExpBuffer(ptr noundef %7, ptr noundef @.str.1002, ptr noundef %17)
  br label %23

18:                                               ; preds = %3
  %19 = load ptr, ptr %5, align 8
  %20 = getelementptr inbounds nuw %struct._funcInfo, ptr %19, i32 0, i32 0
  %21 = getelementptr inbounds nuw %struct._dumpableObject, ptr %20, i32 0, i32 3
  %22 = load ptr, ptr %21, align 8
  call void (ptr, ptr, ...) @appendPQExpBuffer(ptr noundef %7, ptr noundef @.str.1002, ptr noundef %22)
  br label %23

23:                                               ; preds = %18, %12
  store i32 0, ptr %8, align 4
  br label %24

24:                                               ; preds = %44, %23
  %25 = load i32, ptr %8, align 4
  %26 = load ptr, ptr %5, align 8
  %27 = getelementptr inbounds nuw %struct._funcInfo, ptr %26, i32 0, i32 4
  %28 = load i32, ptr %27, align 4
  %29 = icmp slt i32 %25, %28
  br i1 %29, label %30, label %47

30:                                               ; preds = %24
  %31 = load i32, ptr %8, align 4
  %32 = icmp sgt i32 %31, 0
  br i1 %32, label %33, label %34

33:                                               ; preds = %30
  call void @appendPQExpBufferStr(ptr noundef %7, ptr noundef @.str.143)
  br label %34

34:                                               ; preds = %33, %30
  %35 = load ptr, ptr %4, align 8
  %36 = load ptr, ptr %5, align 8
  %37 = getelementptr inbounds nuw %struct._funcInfo, ptr %36, i32 0, i32 5
  %38 = load ptr, ptr %37, align 8
  %39 = load i32, ptr %8, align 4
  %40 = sext i32 %39 to i64
  %41 = getelementptr inbounds i32, ptr %38, i64 %40
  %42 = load i32, ptr %41, align 4
  %43 = call ptr @getFormattedTypeName(ptr noundef %35, i32 noundef %42, i32 noundef 1)
  call void @appendPQExpBufferStr(ptr noundef %7, ptr noundef %43)
  br label %44

44:                                               ; preds = %34
  %45 = load i32, ptr %8, align 4
  %46 = add i32 %45, 1
  store i32 %46, ptr %8, align 4
  br label %24, !llvm.loop !142

47:                                               ; preds = %24
  call void @appendPQExpBufferChar(ptr noundef %7, i8 noundef signext 41)
  %48 = getelementptr inbounds nuw %struct.PQExpBufferData, ptr %7, i32 0, i32 0
  %49 = load ptr, ptr %48, align 8
  call void @llvm.lifetime.end.p0(i64 4, ptr %8) #10
  call void @llvm.lifetime.end.p0(i64 24, ptr %7) #10
  ret ptr %49
}