; Function Attrs: nounwind uwtable
define internal fastcc ptr @format_function_signature(ptr noundef %0, ptr noundef readonly captures(none) %1, i1 noundef zeroext %2) unnamed_addr #5 {
  %4 = alloca %struct.PQExpBufferData, align 8
  call void @llvm.lifetime.start.p0(i64 24, ptr nonnull %4) #14
  call void @initPQExpBuffer(ptr noundef nonnull %4) #14
  %5 = getelementptr inbounds nuw i8, ptr %1, i64 16
  %6 = load ptr, ptr %5, align 8
  br i1 %2, label %7, label %9

7:                                                ; preds = %3
  %8 = call ptr @fmtId(ptr noundef %6) #14
  br label %9

9:                                                ; preds = %3, %7
  %.sink = phi ptr [ %8, %7 ], [ %6, %3 ]
  call void (ptr, ptr, ...) @appendPQExpBuffer(ptr noundef nonnull %4, ptr noundef nonnull @.str.1002, ptr noundef %.sink) #14
  %10 = getelementptr inbounds nuw i8, ptr %1, i64 108
  %11 = load i32, ptr %10, align 4
  %12 = icmp sgt i32 %11, 0
  br i1 %12, label %.lr.ph, label %._crit_edge

.lr.ph:                                           ; preds = %9
  %13 = getelementptr inbounds nuw i8, ptr %1, i64 112
  br label %14

14:                                               ; preds = %.lr.ph, %16
  %indvars.iv = phi i64 [ 0, %.lr.ph ], [ %indvars.iv.next, %16 ]
  %.not = icmp eq i64 %indvars.iv, 0
  br i1 %.not, label %16, label %15

15:                                               ; preds = %14
  call void @appendPQExpBufferStr(ptr noundef nonnull %4, ptr noundef nonnull @.str.143) #14
  br label %16

16:                                               ; preds = %15, %14
  %17 = load ptr, ptr %13, align 8
  %18 = getelementptr inbounds nuw i32, ptr %17, i64 %indvars.iv
  %19 = load i32, ptr %18, align 4
  %20 = call fastcc ptr @getFormattedTypeName(ptr noundef %0, i32 noundef %19, i32 noundef 1)
  call void @appendPQExpBufferStr(ptr noundef nonnull %4, ptr noundef %20) #14
  %indvars.iv.next = add nuw nsw i64 %indvars.iv, 1
  %21 = load i32, ptr %10, align 4
  %22 = sext i32 %21 to i64
  %23 = icmp slt i64 %indvars.iv.next, %22
  br i1 %23, label %14, label %._crit_edge, !llvm.loop !162

._crit_edge:                                      ; preds = %16, %9
  call void @appendPQExpBufferChar(ptr noundef nonnull %4, i8 noundef signext 41) #14
  %24 = load ptr, ptr %4, align 8
  call void @llvm.lifetime.end.p0(i64 24, ptr nonnull %4) #14
  ret ptr %24
}